Certificate:
    Data:
        Version: 1 (0x0)
        Serial Number: 1 (0x1)
        Signature Algorithm: sha512WithRSAEncryption
        Issuer: C=PL, ST=Mazovian, L=Warsaw, O=Piotr Rzewnicki Certification Authority, CN=Piotr Rzewnicki
        Validity
            Not Before: Jan  8 09:19:05 2021 GMT
            Not After : Jan  8 09:19:05 2022 GMT
        Subject: C=PL, ST=Mazovian, L=Warsaw, O=Bezpiecznik, CN=bezpiecznik.com
        Subject Public Key Info:
            Public Key Algorithm: rsaEncryption
                RSA Public-Key: (2048 bit)
                Modulus:
                    00:c6:5e:34:4a:88:65:52:ff:6d:fd:17:cf:0e:12:
                    2d:c6:ac:49:4d:ab:66:7b:73:1b:b1:21:b7:05:26:
                    ca:ab:9e:2a:ac:a9:08:a6:34:1c:8e:10:98:cc:d9:
                    14:f0:12:9a:7f:98:fc:56:9d:4b:3c:33:9f:a4:6b:
                    58:ea:0c:66:95:3d:b2:58:a5:bd:2e:a4:20:78:03:
                    7f:5a:30:9e:b6:14:85:eb:55:88:f0:83:d5:8a:21:
                    a0:6e:6b:7d:54:6c:c9:81:3f:1e:f8:39:83:64:5d:
                    55:97:62:e1:f6:43:3e:8d:ec:73:52:53:82:a6:69:
                    40:ac:93:08:27:82:7b:35:16:0b:50:b8:d3:59:56:
                    95:db:cb:83:c3:7a:2b:e5:88:21:87:fd:63:9c:46:
                    c0:1b:57:82:ff:f7:dc:b2:e9:0f:aa:fc:64:54:51:
                    2f:f3:d1:12:90:3e:3e:47:0a:f1:e4:69:17:25:0d:
                    23:23:53:91:ac:c7:87:ed:ed:c7:c1:33:86:d1:77:
                    36:56:43:3a:60:bf:41:4f:16:31:36:e1:c8:fa:70:
                    97:0b:29:60:33:41:15:03:56:27:43:d5:b2:c8:d1:
                    59:f7:95:0f:34:3b:02:9f:5a:b4:9d:40:39:61:f2:
                    bf:61:e4:1c:20:fd:ad:fd:54:91:09:57:84:78:51:
                    66:c1
                Exponent: 65537 (0x10001)
    Signature Algorithm: sha512WithRSAEncryption
         03:74:fa:4e:d1:bf:87:b6:e2:c5:75:3f:49:87:d2:5a:25:4f:
         96:69:24:c2:46:e0:2b:88:f7:9c:98:f2:5f:fa:d6:61:e5:5e:
         c6:7a:59:e9:81:b2:7a:62:0f:81:0e:61:a3:2e:8b:11:fb:0c:
         61:98:69:3e:c1:40:34:98:46:e9:c0:20:10:3f:1f:40:63:e4:
         83:6e:19:05:1f:c1:17:a5:2b:b1:e7:23:73:b8:c8:f9:16:de:
         8a:69:a1:56:8c:a0:db:ca:53:f8:e0:f8:d5:40:52:f3:ef:04:
         c8:8c:23:27:02:51:2e:57:3e:a8:40:96:c0:84:7f:00:40:d1:
         34:d6:65:79:1a:e9:ae:42:c5:08:bb:f9:c2:8c:55:b6:86:53:
         d8:82:ff:10:47:db:2c:b5:24:83:11:2e:de:f0:b7:3c:c2:89:
         dd:de:7f:bd:ba:46:a0:2b:bd:59:db:d1:a8:94:8a:1b:5b:ef:
         12:a7:5e:04:28:e2:c1:5d:5c:e5:a6:76:8e:8b:c9:0a:28:12:
         d7:82:f8:b7:a8:03:a0:00:5f:52:47:d6:73:4b:a4:72:08:65:
         6f:02:60:0f:7f:19:bf:89:d6:fd:5f:48:90:0d:08:ac:74:98:
         54:28:88:89:75:0e:c5:df:37:82:d6:f1:66:fb:08:f1:43:a6:
         3c:75:38:1d
-----BEGIN CERTIFICATE-----
MIIDUjCCAjoCAQEwDQYJKoZIhvcNAQENBQAwfTELMAkGA1UEBhMCUEwxETAPBgNV
BAgMCE1hem92aWFuMQ8wDQYDVQQHDAZXYXJzYXcxMDAuBgNVBAoMJ1Bpb3RyIFJ6
ZXduaWNraSBDZXJ0aWZpY2F0aW9uIEF1dGhvcml0eTEYMBYGA1UEAwwPUGlvdHIg
Unpld25pY2tpMB4XDTIxMDEwODA5MTkwNVoXDTIyMDEwODA5MTkwNVowYTELMAkG
A1UEBhMCUEwxETAPBgNVBAgMCE1hem92aWFuMQ8wDQYDVQQHDAZXYXJzYXcxFDAS
BgNVBAoMC0JlenBpZWN6bmlrMRgwFgYDVQQDDA9iZXpwaWVjem5pay5jb20wggEi
MA0GCSqGSIb3DQEBAQUAA4IBDwAwggEKAoIBAQDGXjRKiGVS/239F88OEi3GrElN
q2Z7cxuxIbcFJsqrniqsqQimNByOEJjM2RTwEpp/mPxWnUs8M5+ka1jqDGaVPbJY
pb0upCB4A39aMJ62FIXrVYjwg9WKIaBua31UbMmBPx74OYNkXVWXYuH2Qz6N7HNS
U4KmaUCskwgngns1FgtQuNNZVpXby4PDeivliCGH/WOcRsAbV4L/99yy6Q+q/GRU
US/z0RKQPj5HCvHkaRclDSMjU5Gsx4ft7cfBM4bRdzZWQzpgv0FPFjE24cj6cJcL
KWAzQRUDVidD1bLI0Vn3lQ80OwKfWrSdQDlh8r9h5Bwg/a39VJEJV4R4UWbBAgMB
AAEwDQYJKoZIhvcNAQENBQADggEBAAN0+k7Rv4e24sV1P0mH0lolT5ZpJMJG4CuI
95yY8l/61mHlXsZ6WemBsnpiD4EOYaMuixH7DGGYaT7BQDSYRunAIBA/H0Bj5INu
GQUfwRelK7HnI3O4yPkW3oppoVaMoNvKU/jg+NVAUvPvBMiMIycCUS5XPqhAlsCE
fwBA0TTWZXka6a5CxQi7+cKMVbaGU9iC/xBH2yy1JIMRLt7wtzzCid3ef726RqAr
vVnb0aiUihtb7xKnXgQo4sFdXOWmdo6LyQooEteC+LeoA6AAX1JH1nNLpHIIZW8C
YA9/Gb+J1v1fSJANCKx0mFQoiIl1DsXfN4LW8Wb7CPFDpjx1OB0=
-----END CERTIFICATE-----
